target datalayout = "e-m:e-p270:32:32-p271:32:32-p272:64:64-i64:64-i128:128-f80:128-n8:16:32:64-S128"
target triple = "x86_64-pc-linux-gnu"

%struct.rb_data_type_struct = type { ptr, %struct.anon.2, ptr, ptr, i64 }
%struct.anon.2 = type { ptr, ptr, ptr, ptr, [1 x ptr] }
%struct.zstream = type { i64, i64, i64, i64, %struct.z_stream_s, ptr }
%struct.z_stream_s = type { ptr, i32, i64, ptr, i32, i64, ptr, ptr, ptr, ptr, ptr, i32, i64, i64 }
%struct.gzfile = type { %struct.zstream, i64, i32, i32, i64, i64, i64, i64, i32, i32, i64, ptr, ptr, ptr, ptr, i64, i64 }

@cGzError = internal global i64 0, align 8
@gzfile_data_type = internal constant %struct.rb_data_type_struct { ptr @.str.163, %struct.anon.2 { ptr @gzfile_mark, ptr @gzfile_free, ptr @gzfile_memsize, ptr null, [1 x ptr] zeroinitializer }, ptr null, ptr null, i64 1 }, align 8
@.str.165 = private unnamed_addr constant [19 x i8] c"closed gzip stream\00", align 1

; Function Attrs: nounwind sspstrong uwtable
define internal ptr @get_gzfile(i64 noundef %0) #0 {
  %2 = alloca i64, align 8
  %3 = alloca ptr, align 8
  store i64 %0, ptr %2, align 8, !tbaa !6
  call void @llvm.lifetime.start.p0(i64 8, ptr %3) #23
  %4 = load i64, ptr %2, align 8, !tbaa !6
  %5 = call ptr @rb_check_typeddata(i64 noundef %4, ptr noundef @gzfile_data_type)
  store ptr %5, ptr %3, align 8, !tbaa !57
  %6 = load ptr, ptr %3, align 8, !tbaa !57
  %7 = getelementptr inbounds nuw %struct.gzfile, ptr %6, i32 0, i32 0
  %8 = getelementptr inbounds nuw %struct.zstream, ptr %7, i32 0, i32 0
  %9 = load i64, ptr %8, align 8, !tbaa !59
  %10 = and i64 %9, 1
  %11 = icmp ne i64 %10, 0
  br i1 %11, label %14, label %12

12:                                               ; preds = %1
  %13 = load i64, ptr @cGzError, align 8, !tbaa !6
  call void (i64, ptr, ...) @rb_raise(i64 noundef %13, ptr noundef @.str.165) #26
  unreachable

14:                                               ; preds = %1
  %15 = load ptr, ptr %3, align 8, !tbaa !57
  call void @llvm.lifetime.end.p0(i64 8, ptr %3) #23
  ret ptr %15
}

; Function Attrs: nounwind sspstrong uwtable
define internal i64 @rb_gzfile_to_io(i64 noundef %0) #0 {
  %2 = alloca i64, align 8
  store i64 %0, ptr %2, align 8, !tbaa !6
  %3 = load i64, ptr %2, align 8, !tbaa !6
  %4 = call ptr @get_gzfile(i64 noundef %3)
  %5 = getelementptr inbounds nuw %struct.gzfile, ptr %4, i32 0, i32 1
  %6 = load i64, ptr %5, align 8, !tbaa !46
  ret i64 %6
}